; Function Attrs: mustprogress nofree norecurse nosync nounwind willreturn memory(argmem: write) uwtable
define void @_ZN7rocksdb18OnDemandFileSystem12NewDirectoryERKNSt7__cxx1112basic_stringIcSt11char_traitsIcESaIcEEERKNS_9IOOptionsEPSt10unique_ptrINS_11FSDirectoryESt14default_deleteISD_EEPNS_14IODebugContextE(ptr dead_on_unwind noalias writable writeonly sret(%"class.rocksdb::IOStatus") align 8 captures(none) initializes((0, 6), (8, 16)) %0, ptr nonnull readnone align 8 captures(none) %1, ptr nonnull readnone align 8 captures(none) %2, ptr nonnull readnone align 8 captures(none) %3, ptr readnone captures(none) %4, ptr readnone captures(none) %5) unnamed_addr #8 align 2 personality ptr @__gxx_personality_v0 {
  store i8 3, ptr %0, align 8, !tbaa !38, !alias.scope !129
  %7 = getelementptr inbounds nuw i8, ptr %0, i64 1
  store i8 0, ptr %7, align 1, !tbaa !53, !alias.scope !129
  %8 = getelementptr inbounds nuw i8, ptr %0, i64 2
  %9 = getelementptr inbounds nuw i8, ptr %0, i64 8
  store ptr null, ptr %9, align 8, !tbaa !54, !alias.scope !129
  store i32 0, ptr %8, align 2, !alias.scope !129
  ret void
}